target datalayout = "e-m:e-p270:32:32-p271:32:32-p272:64:64-i64:64-i128:128-f80:128-n8:16:32:64-S128"
target triple = "x86_64-pc-linux-gnu"

%"class.Ipopt::Ma57TSolverInterface" = type { %"class.Ipopt::SparseSymLinearSolverInterface.base", %"class.Ipopt::SmartPtr", ptr, ptr, ptr, ptr, ptr, i32, i32, i32, i8, i8, i8, double, double, double, i8, [5 x double], [20 x i32], [40 x i32], [20 x double], i32, ptr, ptr, ptr, i32, ptr, i32, ptr }
%"class.Ipopt::SparseSymLinearSolverInterface.base" = type { %"class.Ipopt::AlgorithmStrategyObject.base" }
%"class.Ipopt::AlgorithmStrategyObject.base" = type <{ %"class.Ipopt::ReferencedObject.base", [4 x i8], %"class.Ipopt::SmartPtr.0", %"class.Ipopt::SmartPtr.1", %"class.Ipopt::SmartPtr.2", %"class.Ipopt::SmartPtr.3", i8 }>
%"class.Ipopt::ReferencedObject.base" = type <{ ptr, i32 }>
%"class.Ipopt::SmartPtr.0" = type { ptr }
%"class.Ipopt::SmartPtr.1" = type { ptr }
%"class.Ipopt::SmartPtr.2" = type { ptr }
%"class.Ipopt::SmartPtr.3" = type { ptr }
%"class.Ipopt::SmartPtr" = type { ptr }
%"class.Ipopt::AlgorithmStrategyObject" = type <{ %"class.Ipopt::ReferencedObject.base", [4 x i8], %"class.Ipopt::SmartPtr.0", %"class.Ipopt::SmartPtr.1", %"class.Ipopt::SmartPtr.2", %"class.Ipopt::SmartPtr.3", i8, [7 x i8] }>

@.str.83 = private unnamed_addr constant [48 x i8] c"Increasing pivot tolerance for MA57 from %7.2e \00", align 1
@.str.84 = private unnamed_addr constant [11 x i8] c"to %7.2e.\0A\00", align 1

; Function Attrs: inlinehint mustprogress nounwind uwtable
define linkonce_odr noundef nonnull align 8 dereferenceable(8) ptr @_ZSt3minIdERKT_S2_S2_(ptr noundef nonnull align 8 dereferenceable(8) %0, ptr noundef nonnull align 8 dereferenceable(8) %1) #12 comdat {
  %3 = alloca ptr, align 8
  %4 = alloca ptr, align 8
  %5 = alloca ptr, align 8
  store ptr %0, ptr %4, align 8, !tbaa !80
  store ptr %1, ptr %5, align 8, !tbaa !80
  %6 = load ptr, ptr %5, align 8, !tbaa !80
  %7 = load double, ptr %6, align 8, !tbaa !68
  %8 = load ptr, ptr %4, align 8, !tbaa !80
  %9 = load double, ptr %8, align 8, !tbaa !68
  %10 = fcmp olt double %7, %9
  br i1 %10, label %11, label %13

11:                                               ; preds = %2
  %12 = load ptr, ptr %5, align 8, !tbaa !80
  store ptr %12, ptr %3, align 8
  br label %15

13:                                               ; preds = %2
  %14 = load ptr, ptr %4, align 8, !tbaa !80
  store ptr %14, ptr %3, align 8
  br label %15

15:                                               ; preds = %13, %11
  %16 = load ptr, ptr %3, align 8
  ret ptr %16
}

; Function Attrs: mustprogress nounwind uwtable
define linkonce_odr noundef nonnull align 8 dereferenceable(40) ptr @_ZNK5Ipopt8SmartPtrIKNS_10JournalistEEdeEv(ptr noundef nonnull align 8 dereferenceable(8) %0) #5 comdat align 2 {
  %2 = alloca ptr, align 8
  store ptr %0, ptr %2, align 8, !tbaa !114
  %3 = load ptr, ptr %2, align 8
  %4 = getelementptr inbounds nuw %"class.Ipopt::SmartPtr.0", ptr %3, i32 0, i32 0
  %5 = load ptr, ptr %4, align 8, !tbaa !116
  ret ptr %5
}

; Function Attrs: inlinehint mustprogress uwtable
define linkonce_odr noundef double @_ZN5Ipopt3MinIdEET_S1_S1_(double noundef %0, double noundef %1) #10 comdat {
  %3 = alloca double, align 8
  %4 = alloca double, align 8
  store double %0, ptr %3, align 8, !tbaa !68
  store double %1, ptr %4, align 8, !tbaa !68
  %5 = call noundef nonnull align 8 dereferenceable(8) ptr @_ZSt3minIdERKT_S2_S2_(ptr noundef nonnull align 8 dereferenceable(8) %3, ptr noundef nonnull align 8 dereferenceable(8) %4)
  %6 = load double, ptr %5, align 8, !tbaa !68
  ret double %6
}

; Function Attrs: mustprogress uwtable
define linkonce_odr noundef nonnull align 8 dereferenceable(40) ptr @_ZNK5Ipopt23AlgorithmStrategyObject5JnlstEv(ptr noundef nonnull align 8 dereferenceable(49) %0) #4 comdat align 2 {
  %2 = alloca ptr, align 8
  store ptr %0, ptr %2, align 8, !tbaa !91
  %3 = load ptr, ptr %2, align 8
  %4 = getelementptr inbounds nuw %"class.Ipopt::AlgorithmStrategyObject", ptr %3, i32 0, i32 2
  %5 = call noundef nonnull align 8 dereferenceable(40) ptr @_ZNK5Ipopt8SmartPtrIKNS_10JournalistEEdeEv(ptr noundef nonnull align 8 dereferenceable(8) %4)
  ret ptr %5
}

; Function Attrs: mustprogress uwtable
define noundef zeroext i1 @_ZN5Ipopt20Ma57TSolverInterface15IncreaseQualityEv(ptr noundef nonnull align 8 dereferenceable(656) %0) unnamed_addr #4 align 2 {
  %2 = alloca i1, align 1
  %3 = alloca ptr, align 8
  store ptr %0, ptr %3, align 8, !tbaa !3
  %4 = load ptr, ptr %3, align 8
  %5 = getelementptr inbounds nuw %"class.Ipopt::Ma57TSolverInterface", ptr %4, i32 0, i32 13
  %6 = load double, ptr %5, align 8, !tbaa !66
  %7 = getelementptr inbounds nuw %"class.Ipopt::Ma57TSolverInterface", ptr %4, i32 0, i32 14
  %8 = load double, ptr %7, align 8, !tbaa !65
  %9 = fcmp oeq double %6, %8
  br i1 %9, label %10, label %11

10:                                               ; preds = %1
  store i1 false, ptr %2, align 1
  br label %32

11:                                               ; preds = %1
  %12 = getelementptr inbounds nuw %"class.Ipopt::Ma57TSolverInterface", ptr %4, i32 0, i32 11
  store i8 1, ptr %12, align 1, !tbaa !39
  %13 = call noundef nonnull align 8 dereferenceable(40) ptr @_ZNK5Ipopt23AlgorithmStrategyObject5JnlstEv(ptr noundef nonnull align 8 dereferenceable(49) %4)
  %14 = getelementptr inbounds nuw %"class.Ipopt::Ma57TSolverInterface", ptr %4, i32 0, i32 13
  %15 = load double, ptr %14, align 8, !tbaa !66
  %16 = load ptr, ptr %13, align 8, !tbaa !10
  %17 = getelementptr inbounds ptr, ptr %16, i64 2
  %18 = load ptr, ptr %17, align 8
  call void (ptr, i32, i32, ptr, ...) %18(ptr noundef nonnull align 8 dereferenceable(40) %13, i32 noundef 6, i32 noundef 7, ptr noundef @.str.83, double noundef %15)
  %19 = getelementptr inbounds nuw %"class.Ipopt::Ma57TSolverInterface", ptr %4, i32 0, i32 14
  %20 = load double, ptr %19, align 8, !tbaa !65
  %21 = getelementptr inbounds nuw %"class.Ipopt::Ma57TSolverInterface", ptr %4, i32 0, i32 13
  %22 = load double, ptr %21, align 8, !tbaa !66
  %23 = call double @pow(double noundef %22, double noundef 7.500000e-01) #3, !tbaa !67
  %24 = call noundef double @_ZN5Ipopt3MinIdEET_S1_S1_(double noundef %20, double noundef %23)
  %25 = getelementptr inbounds nuw %"class.Ipopt::Ma57TSolverInterface", ptr %4, i32 0, i32 13
  store double %24, ptr %25, align 8, !tbaa !66
  %26 = call noundef nonnull align 8 dereferenceable(40) ptr @_ZNK5Ipopt23AlgorithmStrategyObject5JnlstEv(ptr noundef nonnull align 8 dereferenceable(49) %4)
  %27 = getelementptr inbounds nuw %"class.Ipopt::Ma57TSolverInterface", ptr %4, i32 0, i32 13
  %28 = load double, ptr %27, align 8, !tbaa !66
  %29 = load ptr, ptr %26, align 8, !tbaa !10
  %30 = getelementptr inbounds ptr, ptr %29, i64 2
  %31 = load ptr, ptr %30, align 8
  call void (ptr, i32, i32, ptr, ...) %31(ptr noundef nonnull align 8 dereferenceable(40) %26, i32 noundef 6, i32 noundef 7, ptr noundef @.str.84, double noundef %28)
  store i1 true, ptr %2, align 1
  br label %32

32:                                               ; preds = %11, %10
  %33 = load i1, ptr %2, align 1
  ret i1 %33
}